target datalayout = "e-m:e-p270:32:32-p271:32:32-p272:64:64-i64:64-i128:128-f80:128-n8:16:32:64-S128"
target triple = "x86_64-pc-linux-gnu"

%struct.evp_md_ctx_st = type { ptr, ptr, ptr, i64, ptr, ptr, ptr, ptr, ptr }

@.str.28 = private unnamed_addr constant [34 x i8] c"../openssl/test/evp_extra_test2.c\00", align 1
@.str.220 = private unnamed_addr constant [25 x i8] c"ctx = OSSL_LIB_CTX_new()\00", align 1
@.str.221 = private unnamed_addr constant [39 x i8] c"md = EVP_MD_fetch(ctx, \22sha256\22, NULL)\00", align 1
@.str.222 = private unnamed_addr constant [7 x i8] c"sha256\00", align 1
@.str.223 = private unnamed_addr constant [6 x i8] c"inctx\00", align 1
@.str.224 = private unnamed_addr constant [7 x i8] c"outctx\00", align 1
@.str.225 = private unnamed_addr constant [36 x i8] c"EVP_DigestInit_ex2(inctx, md, NULL)\00", align 1
@.str.226 = private unnamed_addr constant [37 x i8] c"EVP_DigestInit_ex2(outctx, md, NULL)\00", align 1
@.str.227 = private unnamed_addr constant [34 x i8] c"EVP_MD_CTX_copy_ex(outctx, inctx)\00", align 1
@.str.228 = private unnamed_addr constant [32 x i8] c"outctx->algctx == origin_algctx\00", align 1

; Function Attrs: nounwind uwtable
define internal i32 @test_evp_md_ctx_copy2() #0 {
  %1 = alloca i32, align 4
  %2 = alloca ptr, align 8
  %3 = alloca ptr, align 8
  %4 = alloca ptr, align 8
  %5 = alloca ptr, align 8
  %6 = alloca ptr, align 8
  call void @llvm.lifetime.start.p0(i64 4, ptr %1) #7
  store i32 0, ptr %1, align 4, !tbaa !11
  call void @llvm.lifetime.start.p0(i64 8, ptr %2) #7
  store ptr null, ptr %2, align 8, !tbaa !9
  call void @llvm.lifetime.start.p0(i64 8, ptr %3) #7
  store ptr null, ptr %3, align 8, !tbaa !4
  call void @llvm.lifetime.start.p0(i64 8, ptr %4) #7
  store ptr null, ptr %4, align 8, !tbaa !46
  call void @llvm.lifetime.start.p0(i64 8, ptr %5) #7
  store ptr null, ptr %5, align 8, !tbaa !46
  call void @llvm.lifetime.start.p0(i64 8, ptr %6) #7
  store ptr null, ptr %6, align 8, !tbaa !38
  %7 = call ptr @OSSL_LIB_CTX_new()
  store ptr %7, ptr %3, align 8, !tbaa !4
  %8 = call i32 @test_ptr(ptr noundef @.str.28, i32 noundef 1363, ptr noundef @.str.220, ptr noundef %7)
  %9 = icmp ne i32 %8, 0
  br i1 %9, label %10, label %15

10:                                               ; preds = %0
  %11 = load ptr, ptr %3, align 8, !tbaa !4
  %12 = call ptr @EVP_MD_fetch(ptr noundef %11, ptr noundef @.str.222, ptr noundef null)
  store ptr %12, ptr %2, align 8, !tbaa !9
  %13 = call i32 @test_ptr(ptr noundef @.str.28, i32 noundef 1364, ptr noundef @.str.221, ptr noundef %12)
  %14 = icmp ne i32 %13, 0
  br i1 %14, label %16, label %15

15:                                               ; preds = %10, %0
  br label %70

16:                                               ; preds = %10
  %17 = call ptr @EVP_MD_CTX_new()
  store ptr %17, ptr %4, align 8, !tbaa !46
  %18 = call ptr @EVP_MD_CTX_new()
  store ptr %18, ptr %5, align 8, !tbaa !46
  %19 = load ptr, ptr %4, align 8, !tbaa !46
  %20 = call i32 @test_ptr(ptr noundef @.str.28, i32 noundef 1370, ptr noundef @.str.223, ptr noundef %19)
  %21 = icmp ne i32 %20, 0
  br i1 %21, label %22, label %26

22:                                               ; preds = %16
  %23 = load ptr, ptr %5, align 8, !tbaa !46
  %24 = call i32 @test_ptr(ptr noundef @.str.28, i32 noundef 1370, ptr noundef @.str.224, ptr noundef %23)
  %25 = icmp ne i32 %24, 0
  br i1 %25, label %27, label %26

26:                                               ; preds = %22, %16
  br label %70

27:                                               ; preds = %22
  %28 = load ptr, ptr %4, align 8, !tbaa !46
  %29 = load ptr, ptr %2, align 8, !tbaa !9
  %30 = call i32 @EVP_DigestInit_ex2(ptr noundef %28, ptr noundef %29, ptr noundef null)
  %31 = icmp ne i32 %30, 0
  %32 = zext i1 %31 to i32
  %33 = call i32 @test_true(ptr noundef @.str.28, i32 noundef 1374, ptr noundef @.str.225, i32 noundef %32)
  %34 = icmp ne i32 %33, 0
  br i1 %34, label %36, label %35

35:                                               ; preds = %27
  br label %70

36:                                               ; preds = %27
  %37 = load ptr, ptr %5, align 8, !tbaa !46
  %38 = load ptr, ptr %2, align 8, !tbaa !9
  %39 = call i32 @EVP_DigestInit_ex2(ptr noundef %37, ptr noundef %38, ptr noundef null)
  %40 = icmp ne i32 %39, 0
  %41 = zext i1 %40 to i32
  %42 = call i32 @test_true(ptr noundef @.str.28, i32 noundef 1376, ptr noundef @.str.226, i32 noundef %41)
  %43 = icmp ne i32 %42, 0
  br i1 %43, label %45, label %44

44:                                               ; preds = %36
  br label %70

45:                                               ; preds = %36
  %46 = load ptr, ptr %5, align 8, !tbaa !46
  %47 = getelementptr inbounds nuw %struct.evp_md_ctx_st, ptr %46, i32 0, i32 7
  %48 = load ptr, ptr %47, align 8, !tbaa !48
  store ptr %48, ptr %6, align 8, !tbaa !38
  %49 = load ptr, ptr %5, align 8, !tbaa !46
  %50 = load ptr, ptr %4, align 8, !tbaa !46
  %51 = call i32 @EVP_MD_CTX_copy_ex(ptr noundef %49, ptr noundef %50)
  %52 = icmp ne i32 %51, 0
  %53 = zext i1 %52 to i32
  %54 = call i32 @test_true(ptr noundef @.str.28, i32 noundef 1384, ptr noundef @.str.227, i32 noundef %53)
  %55 = icmp ne i32 %54, 0
  br i1 %55, label %56, label %67

56:                                               ; preds = %45
  %57 = load ptr, ptr %5, align 8, !tbaa !46
  %58 = getelementptr inbounds nuw %struct.evp_md_ctx_st, ptr %57, i32 0, i32 7
  %59 = load ptr, ptr %58, align 8, !tbaa !48
  %60 = load ptr, ptr %6, align 8, !tbaa !38
  %61 = icmp eq ptr %59, %60
  %62 = zext i1 %61 to i32
  %63 = icmp ne i32 %62, 0
  %64 = zext i1 %63 to i32
  %65 = call i32 @test_true(ptr noundef @.str.28, i32 noundef 1385, ptr noundef @.str.228, i32 noundef %64)
  %66 = icmp ne i32 %65, 0
  br label %67

67:                                               ; preds = %56, %45
  %68 = phi i1 [ false, %45 ], [ %66, %56 ]
  %69 = zext i1 %68 to i32
  store i32 %69, ptr %1, align 4, !tbaa !11
  br label %70

70:                                               ; preds = %67, %44, %35, %26, %15
  %71 = load ptr, ptr %2, align 8, !tbaa !9
  call void @EVP_MD_free(ptr noundef %71)
  %72 = load ptr, ptr %4, align 8, !tbaa !46
  call void @EVP_MD_CTX_free(ptr noundef %72)
  %73 = load ptr, ptr %5, align 8, !tbaa !46
  call void @EVP_MD_CTX_free(ptr noundef %73)
  %74 = load ptr, ptr %3, align 8, !tbaa !4
  call void @OSSL_LIB_CTX_free(ptr noundef %74)
  %75 = load i32, ptr %1, align 4, !tbaa !11
  call void @llvm.lifetime.end.p0(i64 8, ptr %6) #7
  call void @llvm.lifetime.end.p0(i64 8, ptr %5) #7
  call void @llvm.lifetime.end.p0(i64 8, ptr %4) #7
  call void @llvm.lifetime.end.p0(i64 8, ptr %3) #7
  call void @llvm.lifetime.end.p0(i64 8, ptr %2) #7
  call void @llvm.lifetime.end.p0(i64 4, ptr %1) #7
  ret i32 %75
}