; Function Attrs: nounwind uwtable
define internal range(i32 0, 2) i32 @test_evp_md_ctx_copy2() #0 {
  %1 = tail call ptr @OSSL_LIB_CTX_new() #7
  %2 = tail call i32 @test_ptr(ptr noundef nonnull @.str.28, i32 noundef 1363, ptr noundef nonnull @.str.220, ptr noundef %1) #7
  %.not = icmp eq i32 %2, 0
  br i1 %.not, label %36, label %3

3:                                                ; preds = %0
  %4 = tail call ptr @EVP_MD_fetch(ptr noundef %1, ptr noundef nonnull @.str.222, ptr noundef null) #7
  %5 = tail call i32 @test_ptr(ptr noundef nonnull @.str.28, i32 noundef 1364, ptr noundef nonnull @.str.221, ptr noundef %4) #7
  %.not19 = icmp eq i32 %5, 0
  br i1 %.not19, label %36, label %6

6:                                                ; preds = %3
  %7 = tail call ptr @EVP_MD_CTX_new() #7
  %8 = tail call ptr @EVP_MD_CTX_new() #7
  %9 = tail call i32 @test_ptr(ptr noundef nonnull @.str.28, i32 noundef 1370, ptr noundef nonnull @.str.223, ptr noundef %7) #7
  %.not20 = icmp eq i32 %9, 0
  br i1 %.not20, label %36, label %10

10:                                               ; preds = %6
  %11 = tail call i32 @test_ptr(ptr noundef nonnull @.str.28, i32 noundef 1370, ptr noundef nonnull @.str.224, ptr noundef %8) #7
  %.not21 = icmp eq i32 %11, 0
  br i1 %.not21, label %36, label %12

12:                                               ; preds = %10
  %13 = tail call i32 @EVP_DigestInit_ex2(ptr noundef %7, ptr noundef %4, ptr noundef null) #7
  %14 = icmp ne i32 %13, 0
  %15 = zext i1 %14 to i32
  %16 = tail call i32 @test_true(ptr noundef nonnull @.str.28, i32 noundef 1374, ptr noundef nonnull @.str.225, i32 noundef %15) #7
  %.not22 = icmp eq i32 %16, 0
  br i1 %.not22, label %36, label %17

17:                                               ; preds = %12
  %18 = tail call i32 @EVP_DigestInit_ex2(ptr noundef %8, ptr noundef %4, ptr noundef null) #7
  %19 = icmp ne i32 %18, 0
  %20 = zext i1 %19 to i32
  %21 = tail call i32 @test_true(ptr noundef nonnull @.str.28, i32 noundef 1376, ptr noundef nonnull @.str.226, i32 noundef %20) #7
  %.not23 = icmp eq i32 %21, 0
  br i1 %.not23, label %36, label %22

22:                                               ; preds = %17
  %23 = getelementptr inbounds nuw i8, ptr %8, i64 56
  %24 = load ptr, ptr %23, align 8, !tbaa !28
  %25 = tail call i32 @EVP_MD_CTX_copy_ex(ptr noundef %8, ptr noundef %7) #7
  %26 = icmp ne i32 %25, 0
  %27 = zext i1 %26 to i32
  %28 = tail call i32 @test_true(ptr noundef nonnull @.str.28, i32 noundef 1384, ptr noundef nonnull @.str.227, i32 noundef %27) #7
  %.not24 = icmp eq i32 %28, 0
  br i1 %.not24, label %36, label %29

29:                                               ; preds = %22
  %30 = load ptr, ptr %23, align 8, !tbaa !28
  %31 = icmp eq ptr %30, %24
  %32 = zext i1 %31 to i32
  %33 = tail call i32 @test_true(ptr noundef nonnull @.str.28, i32 noundef 1385, ptr noundef nonnull @.str.228, i32 noundef %32) #7
  %34 = icmp ne i32 %33, 0
  %35 = zext i1 %34 to i32
  br label %36

36:                                               ; preds = %22, %29, %17, %12, %6, %10, %0, %3
  %.018 = phi i32 [ 0, %17 ], [ 0, %12 ], [ 0, %10 ], [ 0, %6 ], [ 0, %3 ], [ 0, %0 ], [ 0, %22 ], [ %35, %29 ]
  %.017 = phi ptr [ %4, %17 ], [ %4, %12 ], [ %4, %10 ], [ %4, %6 ], [ %4, %3 ], [ null, %0 ], [ %4, %22 ], [ %4, %29 ]
  %.016 = phi ptr [ %7, %17 ], [ %7, %12 ], [ %7, %10 ], [ %7, %6 ], [ null, %3 ], [ null, %0 ], [ %7, %22 ], [ %7, %29 ]
  %.0 = phi ptr [ %8, %17 ], [ %8, %12 ], [ %8, %10 ], [ %8, %6 ], [ null, %3 ], [ null, %0 ], [ %8, %22 ], [ %8, %29 ]
  tail call void @EVP_MD_free(ptr noundef %.017) #7
  tail call void @EVP_MD_CTX_free(ptr noundef %.016) #7
  tail call void @EVP_MD_CTX_free(ptr noundef %.0) #7
  tail call void @OSSL_LIB_CTX_free(ptr noundef %1) #7
  ret i32 %.018
}